target datalayout = "e-m:e-p270:32:32-p271:32:32-p272:64:64-i64:64-i128:128-f80:128-n8:16:32:64-S128"
target triple = "x86_64-pc-linux-gnu"

%struct.gmx_ana_pos_t = type <{ ptr, ptr, ptr, %struct.gmx_ana_indexmap_t, i32, [4 x i8] }>
%struct.gmx_ana_indexmap_t = type { i32, ptr, ptr, %struct.t_blocka, ptr, %struct.t_blocka, i8 }
%struct.t_blocka = type { i32, ptr, i32, ptr, i32, i32 }

; Function Attrs: mustprogress nounwind uwtable
define void @_Z17gmx_ana_pos_emptyP13gmx_ana_pos_t(ptr noundef %0) #2 {
  %2 = alloca ptr, align 8
  store ptr %0, ptr %2, align 8
  %3 = load ptr, ptr %2, align 8
  %4 = getelementptr inbounds %struct.gmx_ana_pos_t, ptr %3, i32 0, i32 3
  %5 = getelementptr inbounds %struct.gmx_ana_indexmap_t, ptr %4, i32 0, i32 3
  %6 = getelementptr inbounds %struct.t_blocka, ptr %5, i32 0, i32 0
  store i32 0, ptr %6, align 8
  %7 = load ptr, ptr %2, align 8
  %8 = getelementptr inbounds %struct.gmx_ana_pos_t, ptr %7, i32 0, i32 3
  %9 = getelementptr inbounds %struct.gmx_ana_indexmap_t, ptr %8, i32 0, i32 3
  %10 = getelementptr inbounds %struct.t_blocka, ptr %9, i32 0, i32 2
  store i32 0, ptr %10, align 8
  %11 = load ptr, ptr %2, align 8
  %12 = getelementptr inbounds %struct.gmx_ana_pos_t, ptr %11, i32 0, i32 3
  %13 = getelementptr inbounds %struct.gmx_ana_indexmap_t, ptr %12, i32 0, i32 3
  %14 = getelementptr inbounds %struct.t_blocka, ptr %13, i32 0, i32 1
  %15 = load ptr, ptr %14, align 8
  %16 = getelementptr inbounds i32, ptr %15, i64 0
  store i32 0, ptr %16, align 4
  %17 = load ptr, ptr %2, align 8
  %18 = getelementptr inbounds %struct.gmx_ana_pos_t, ptr %17, i32 0, i32 3
  %19 = getelementptr inbounds %struct.gmx_ana_indexmap_t, ptr %18, i32 0, i32 6
  store i8 1, ptr %19, align 8
  ret void
}