; Function Attrs: mustprogress nofree norecurse nosync nounwind willreturn memory(write, argmem: readwrite, inaccessiblemem: none) uwtable
define void @_Z17gmx_ana_pos_emptyP13gmx_ana_pos_t(ptr nocapture noundef %0) local_unnamed_addr #7 {
  %2 = getelementptr inbounds i8, ptr %0, i64 48
  store i32 0, ptr %2, align 8
  %3 = getelementptr inbounds i8, ptr %0, i64 64
  store i32 0, ptr %3, align 8
  %4 = getelementptr inbounds i8, ptr %0, i64 56
  %5 = load ptr, ptr %4, align 8
  store i32 0, ptr %5, align 4
  %6 = getelementptr inbounds i8, ptr %0, i64 136
  store i8 1, ptr %6, align 8
  ret void
}